; ModuleID = '7/1150.c'
source_filename = "7/1150.c"
target datalayout = "e-m:e-p270:32:32-p271:32:32-p272:64:64-i64:64-f80:128-n8:16:32:64-S128"
target triple = "x86_64-pc-linux-gnu"

@.str = private unnamed_addr constant [7 x i8] c"%s%s%s\00", align 1
@.str.1 = private unnamed_addr constant [3 x i8] c"%s\00", align 1

; Function Attrs: noinline nounwind uwtable
define dso_local void @main() #0 {
  %1 = alloca [256 x i8], align 16
  %2 = alloca [256 x i8], align 16
  %3 = alloca [256 x i8], align 16
  %4 = alloca i32, align 4
  %5 = alloca i32, align 4
  %6 = alloca i32, align 4
  %7 = alloca i32, align 4
  %8 = alloca i32, align 4
  %9 = getelementptr inbounds [256 x i8], [256 x i8]* %1, i64 0, i64 0
  %10 = getelementptr inbounds [256 x i8], [256 x i8]* %2, i64 0, i64 0
  %11 = getelementptr inbounds [256 x i8], [256 x i8]* %3, i64 0, i64 0
  %12 = call i32 (i8*, ...) @__isoc99_scanf(i8* getelementptr inbounds ([7 x i8], [7 x i8]* @.str, i64 0, i64 0), i8* %9, i8* %10, i8* %11)
  %13 = getelementptr inbounds [256 x i8], [256 x i8]* %1, i64 0, i64 0
  %14 = call i64 @strlen(i8* %13) #3
  %15 = trunc i64 %14 to i32
  store i32 %15, i32* %4, align 4
  %16 = getelementptr inbounds [256 x i8], [256 x i8]* %2, i64 0, i64 0
  %17 = call i64 @strlen(i8* %16) #3
  %18 = trunc i64 %17 to i32
  store i32 %18, i32* %5, align 4
  store i32 0, i32* %6, align 4
  br label %19

19:                                               ; preds = %115, %0
  %20 = load i32, i32* %6, align 4
  %21 = load i32, i32* %4, align 4
  %22 = load i32, i32* %5, align 4
  %23 = sub nsw i32 %21, %22
  %24 = icmp sle i32 %20, %23
  br i1 %24, label %25, label %118

25:                                               ; preds = %19
  store i32 0, i32* %8, align 4
  %26 = load i32, i32* %5, align 4
  %27 = icmp ne i32 %26, 1
  br i1 %27, label %28, label %97

28:                                               ; preds = %25
  %29 = load i32, i32* %6, align 4
  %30 = sext i32 %29 to i64
  %31 = getelementptr inbounds [256 x i8], [256 x i8]* %1, i64 0, i64 %30
  %32 = load i8, i8* %31, align 1
  %33 = sext i8 %32 to i32
  %34 = getelementptr inbounds [256 x i8], [256 x i8]* %2, i64 0, i64 0
  %35 = load i8, i8* %34, align 16
  %36 = sext i8 %35 to i32
  %37 = icmp eq i32 %33, %36
  br i1 %37, label %38, label %69

38:                                               ; preds = %28
  %39 = load i32, i32* %6, align 4
  %40 = add nsw i32 %39, 1
  store i32 %40, i32* %7, align 4
  br label %41

41:                                               ; preds = %65, %38
  %42 = load i32, i32* %7, align 4
  %43 = load i32, i32* %6, align 4
  %44 = load i32, i32* %5, align 4
  %45 = add nsw i32 %43, %44
  %46 = icmp slt i32 %42, %45
  br i1 %46, label %47, label %68

47:                                               ; preds = %41
  %48 = load i32, i32* %7, align 4
  %49 = sext i32 %48 to i64
  %50 = getelementptr inbounds [256 x i8], [256 x i8]* %1, i64 0, i64 %49
  %51 = load i8, i8* %50, align 1
  %52 = sext i8 %51 to i32
  %53 = load i32, i32* %7, align 4
  %54 = load i32, i32* %6, align 4
  %55 = sub nsw i32 %53, %54
  %56 = sext i32 %55 to i64
  %57 = getelementptr inbounds [256 x i8], [256 x i8]* %2, i64 0, i64 %56
  %58 = load i8, i8* %57, align 1
  %59 = sext i8 %58 to i32
  %60 = icmp ne i32 %52, %59
  br i1 %60, label %61, label %62

61:                                               ; preds = %47
  br label %68

62:                                               ; preds = %47
  %63 = load i32, i32* %8, align 4
  %64 = add nsw i32 %63, 1
  store i32 %64, i32* %8, align 4
  br label %65

65:                                               ; preds = %62
  %66 = load i32, i32* %7, align 4
  %67 = add nsw i32 %66, 1
  store i32 %67, i32* %7, align 4
  br label %41

68:                                               ; preds = %61, %41
  br label %69

69:                                               ; preds = %68, %28
  %70 = load i32, i32* %8, align 4
  %71 = load i32, i32* %5, align 4
  %72 = sub nsw i32 %71, 1
  %73 = icmp eq i32 %70, %72
  br i1 %73, label %74, label %96

74:                                               ; preds = %69
  %75 = load i32, i32* %6, align 4
  store i32 %75, i32* %7, align 4
  br label %76

76:                                               ; preds = %92, %74
  %77 = load i32, i32* %7, align 4
  %78 = load i32, i32* %6, align 4
  %79 = load i32, i32* %5, align 4
  %80 = add nsw i32 %78, %79
  %81 = icmp slt i32 %77, %80
  br i1 %81, label %82, label %95

82:                                               ; preds = %76
  %83 = load i32, i32* %7, align 4
  %84 = load i32, i32* %6, align 4
  %85 = sub nsw i32 %83, %84
  %86 = sext i32 %85 to i64
  %87 = getelementptr inbounds [256 x i8], [256 x i8]* %3, i64 0, i64 %86
  %88 = load i8, i8* %87, align 1
  %89 = load i32, i32* %7, align 4
  %90 = sext i32 %89 to i64
  %91 = getelementptr inbounds [256 x i8], [256 x i8]* %1, i64 0, i64 %90
  store i8 %88, i8* %91, align 1
  br label %92

92:                                               ; preds = %82
  %93 = load i32, i32* %7, align 4
  %94 = add nsw i32 %93, 1
  store i32 %94, i32* %7, align 4
  br label %76

95:                                               ; preds = %76
  br label %118

96:                                               ; preds = %69
  br label %114

97:                                               ; preds = %25
  %98 = load i32, i32* %6, align 4
  %99 = sext i32 %98 to i64
  %100 = getelementptr inbounds [256 x i8], [256 x i8]* %1, i64 0, i64 %99
  %101 = load i8, i8* %100, align 1
  %102 = sext i8 %101 to i32
  %103 = getelementptr inbounds [256 x i8], [256 x i8]* %2, i64 0, i64 0
  %104 = load i8, i8* %103, align 16
  %105 = sext i8 %104 to i32
  %106 = icmp eq i32 %102, %105
  br i1 %106, label %107, label %113

107:                                              ; preds = %97
  %108 = getelementptr inbounds [256 x i8], [256 x i8]* %3, i64 0, i64 0
  %109 = load i8, i8* %108, align 16
  %110 = load i32, i32* %6, align 4
  %111 = sext i32 %110 to i64
  %112 = getelementptr inbounds [256 x i8], [256 x i8]* %1, i64 0, i64 %111
  store i8 %109, i8* %112, align 1
  br label %118

113:                                              ; preds = %97
  br label %114

114:                                              ; preds = %113, %96
  br label %115

115:                                              ; preds = %114
  %116 = load i32, i32* %6, align 4
  %117 = add nsw i32 %116, 1
  store i32 %117, i32* %6, align 4
  br label %19

118:                                              ; preds = %107, %95, %19
  %119 = getelementptr inbounds [256 x i8], [256 x i8]* %1, i64 0, i64 0
  %120 = call i32 (i8*, ...) @printf(i8* getelementptr inbounds ([3 x i8], [3 x i8]* @.str.1, i64 0, i64 0), i8* %119)
  ret void
}

declare dso_local i32 @__isoc99_scanf(i8*, ...) #1

; Function Attrs: nounwind readonly
declare dso_local i64 @strlen(i8*) #2

declare dso_local i32 @printf(i8*, ...) #1


!llvm.module.flags = !{!0}
!llvm.ident = !{!1}

!0 = !{i32 1, !"wchar_size", i32 4}
!1 = !{!"clang version 10.0.0-4ubuntu1 "}
